; Function Attrs: nounwind uwtable
define internal void @kdf_pbkdf2_free(ptr noundef %0) #0 {
  %.not = icmp eq ptr %0, null
  br i1 %.not, label %10, label %2

2:                                                ; preds = %1
  %3 = getelementptr inbounds nuw i8, ptr %0, i64 48
  tail call void @ossl_prov_digest_reset(ptr noundef nonnull %3) #7
  %4 = getelementptr inbounds nuw i8, ptr %0, i64 24
  %5 = load ptr, ptr %4, align 8, !tbaa !17
  tail call void @CRYPTO_free(ptr noundef %5, ptr noundef nonnull @.str, i32 noundef 99) #7
  %6 = getelementptr inbounds nuw i8, ptr %0, i64 8
  %7 = load ptr, ptr %6, align 8, !tbaa !19
  %8 = getelementptr inbounds nuw i8, ptr %0, i64 16
  %9 = load i64, ptr %8, align 8, !tbaa !20
  tail call void @CRYPTO_clear_free(ptr noundef %7, i64 noundef %9, ptr noundef nonnull @.str, i32 noundef 101) #7
  tail call void @llvm.memset.p0.i64(ptr noundef nonnull align 8 dereferenceable(80) %0, i8 0, i64 80, i1 false)
  tail call void @CRYPTO_free(ptr noundef nonnull %0, ptr noundef nonnull @.str, i32 noundef 111) #7
  br label %10

10:                                               ; preds = %2, %1
  ret void
}